; Function Attrs: mustprogress uwtable
define internal void @_ZN11opencv_testL40gtest_Size_MatType_dilate_EvalGenerator_Ev(ptr dead_on_unwind noalias writable sret(%"class.testing::internal::ParamGenerator") align 8 %0) #4 {
  %2 = alloca %"class.testing::internal::CartesianProductHolder2", align 8
  call void @llvm.lifetime.start.p0(i64 48, ptr nonnull %2) #29
  %.sroa.04.0.copyload = load i64, ptr @_ZN4perfL6szQVGAE, align 8
  %.sroa.03.0.copyload = load i64, ptr @_ZN4perfL5szVGAE, align 8
  %.sroa.02.0.copyload = load i64, ptr @_ZN4perfL6szSVGAE, align 8
  %.sroa.01.0.copyload = load i64, ptr @_ZN4perfL5szXGAE, align 8
  %.sroa.0.0.copyload = load i64, ptr @_ZN4perfL6szSXGAE, align 8
  store i64 %.sroa.04.0.copyload, ptr %2, align 8, !alias.scope !108
  %3 = getelementptr inbounds nuw i8, ptr %2, i64 8
  store i64 %.sroa.03.0.copyload, ptr %3, align 8, !alias.scope !108
  %4 = getelementptr inbounds nuw i8, ptr %2, i64 16
  store i64 %.sroa.02.0.copyload, ptr %4, align 8, !alias.scope !108
  %5 = getelementptr inbounds nuw i8, ptr %2, i64 24
  store i64 %.sroa.01.0.copyload, ptr %5, align 8, !alias.scope !108
  %6 = getelementptr inbounds nuw i8, ptr %2, i64 32
  store i64 %.sroa.0.0.copyload, ptr %6, align 8, !alias.scope !108
  %7 = getelementptr inbounds nuw i8, ptr %2, i64 40
  store i32 0, ptr %7, align 8, !tbaa !73, !alias.scope !108
  %8 = getelementptr inbounds nuw i8, ptr %2, i64 44
  store i32 24, ptr %8, align 4, !tbaa !75, !alias.scope !108
  call void @_ZNK7testing8internal23CartesianProductHolder2INS0_11ValueArray5IN2cv5Size_IiEES5_S5_S5_S5_EENS0_11ValueArray2IiiEEEcvNS0_14ParamGeneratorISt5tupleIJT_T0_EEEEIS5_N4perf7MatTypeEEEv(ptr dead_on_unwind writable sret(%"class.testing::internal::ParamGenerator") align 8 %0, ptr noundef nonnull align 4 dereferenceable(48) %2)
  call void @llvm.lifetime.end.p0(i64 48, ptr nonnull %2) #29
  ret void
}